; Function Attrs: mustprogress nounwind uwtable
define dso_local void @_ZN4llvm18RegPressureTracker19getDownwardPressureEPKNS_12MachineInstrERSt6vectorIjSaIjEES7_(ptr noundef nonnull align 8 dereferenceable(352) %0, ptr noundef %1, ptr noundef nonnull align 8 dereferenceable(24) %2, ptr noundef nonnull align 8 dereferenceable(24) %3) local_unnamed_addr #0 align 2 {
  %5 = getelementptr inbounds nuw i8, ptr %0, i64 72
  %6 = tail call noundef nonnull align 8 dereferenceable(24) ptr @_ZNSt6vectorIjSaIjEEaSERKS1_(ptr noundef nonnull align 8 dereferenceable(24) %2, ptr noundef nonnull align 8 dereferenceable(24) %5)
  %7 = getelementptr inbounds nuw i8, ptr %0, i64 48
  %8 = load ptr, ptr %7, align 8
  %9 = tail call noundef nonnull align 8 dereferenceable(24) ptr @_ZNSt6vectorIjSaIjEEaSERKS1_(ptr noundef nonnull align 8 dereferenceable(24) %3, ptr noundef nonnull align 8 dereferenceable(24) %8)
  tail call void @_ZN4llvm18RegPressureTracker20bumpDownwardPressureEPKNS_12MachineInstrE(ptr noundef nonnull align 8 dereferenceable(352) %0, ptr noundef %1)
  %10 = load ptr, ptr %7, align 8
  %11 = load ptr, ptr %10, align 8
  %12 = getelementptr inbounds nuw i8, ptr %10, i64 8
  %13 = load ptr, ptr %12, align 8
  %14 = getelementptr inbounds nuw i8, ptr %10, i64 16
  %15 = load ptr, ptr %14, align 8
  %16 = load ptr, ptr %3, align 8
  store ptr %16, ptr %10, align 8
  %17 = getelementptr inbounds nuw i8, ptr %3, i64 8
  %18 = load ptr, ptr %17, align 8
  store ptr %18, ptr %12, align 8
  %19 = getelementptr inbounds nuw i8, ptr %3, i64 16
  %20 = load ptr, ptr %19, align 8
  store ptr %20, ptr %14, align 8
  store ptr %11, ptr %3, align 8
  store ptr %13, ptr %17, align 8
  store ptr %15, ptr %19, align 8
  %21 = load ptr, ptr %5, align 8
  %22 = getelementptr inbounds i8, ptr %0, i64 80
  %23 = load ptr, ptr %22, align 8
  %24 = getelementptr inbounds i8, ptr %0, i64 88
  %25 = load ptr, ptr %24, align 8
  %26 = load ptr, ptr %2, align 8
  store ptr %26, ptr %5, align 8
  %27 = getelementptr inbounds nuw i8, ptr %2, i64 8
  %28 = load ptr, ptr %27, align 8
  store ptr %28, ptr %22, align 8
  %29 = getelementptr inbounds nuw i8, ptr %2, i64 16
  %30 = load ptr, ptr %29, align 8
  store ptr %30, ptr %24, align 8
  store ptr %21, ptr %2, align 8
  store ptr %23, ptr %27, align 8
  store ptr %25, ptr %29, align 8
  ret void
}